; Function Attrs: mustprogress uwtable
define internal void @"_ZNSt17_Function_handlerIFN7rocksdb6StatusEvEZNS0_18WriteUnpreparedTxn3PutEPNS0_18ColumnFamilyHandleERKNS0_10SlicePartsES8_bE3$_0E9_M_invokeERKSt9_Any_data"(ptr dead_on_unwind noalias writable sret(%"class.rocksdb::Status") align 8 %0, ptr noundef nonnull readonly align 8 captures(none) dereferenceable(16) %1) #4 align 2 {
  %.val = load ptr, ptr %1, align 8, !tbaa !336
  %3 = load ptr, ptr %.val, align 8, !tbaa !722, !noalias !724
  %4 = getelementptr inbounds nuw i8, ptr %.val, i64 8
  %5 = load ptr, ptr %4, align 8, !tbaa !731, !noalias !724
  %6 = load ptr, ptr %5, align 8, !tbaa !327, !noalias !724
  %7 = getelementptr inbounds nuw i8, ptr %.val, i64 16
  %8 = load ptr, ptr %7, align 8, !tbaa !732, !noalias !724
  %9 = getelementptr inbounds nuw i8, ptr %.val, i64 24
  %10 = load ptr, ptr %9, align 8, !tbaa !733, !noalias !724
  %11 = getelementptr inbounds nuw i8, ptr %.val, i64 32
  %12 = load ptr, ptr %11, align 8, !tbaa !734, !noalias !724
  %13 = load i8, ptr %12, align 1, !tbaa !33, !range !37, !noalias !724, !noundef !38
  %14 = trunc nuw i8 %13 to i1
  tail call void @_ZN7rocksdb19TransactionBaseImpl3PutEPNS_18ColumnFamilyHandleERKNS_10SlicePartsES5_b(ptr dead_on_unwind writable sret(%"class.rocksdb::Status") align 8 %0, ptr noundef nonnull align 8 dereferenceable(400) %3, ptr noundef %6, ptr noundef nonnull align 8 dereferenceable(12) %8, ptr noundef nonnull align 8 dereferenceable(12) %10, i1 noundef zeroext %14)
  ret void
}